; Function Attrs: mustprogress uwtable
define void @_ZNK6icu_7514NFSubstitution8toStringERNS_13UnicodeStringE(ptr noundef nonnull align 8 dereferenceable(32) %this, ptr noundef nonnull align 8 dereferenceable(64) %text) unnamed_addr #2 align 2 personality ptr @__gxx_personality_v0 {
entry:
  %srcChar.addr.i7 = alloca i16, align 2
  %srcChar.addr.i = alloca i16, align 2
  %temp = alloca %"class.icu_75::UnicodeString", align 8
  %fUnion.i.i = getelementptr inbounds i8, ptr %text, i64 8
  %0 = load i16, ptr %fUnion.i.i, align 8
  %conv2.i3.i = and i16 %0, 1
  %tobool.not.i = icmp eq i16 %conv2.i3.i, 0
  %1 = and i16 %0, 30
  %storemerge.i = select i1 %tobool.not.i, i16 %1, i16 2
  store i16 %storemerge.i, ptr %fUnion.i.i, align 8
  %vtable = load ptr, ptr %this, align 8
  %vfn = getelementptr inbounds i8, ptr %vtable, i64 104
  %2 = load ptr, ptr %vfn, align 8
  %call2 = tail call noundef zeroext i16 %2(ptr noundef nonnull align 8 dereferenceable(32) %this)
  call void @llvm.lifetime.start.p0(i64 2, ptr nonnull %srcChar.addr.i)
  store i16 %call2, ptr %srcChar.addr.i, align 2
  %call.i = call noundef nonnull align 8 dereferenceable(64) ptr @_ZN6icu_7513UnicodeString8doAppendEPKDsii(ptr noundef nonnull align 8 dereferenceable(64) %text, ptr noundef nonnull %srcChar.addr.i, i32 noundef 0, i32 noundef 1)
  call void @llvm.lifetime.end.p0(i64 2, ptr nonnull %srcChar.addr.i)
  store ptr getelementptr inbounds ({ [13 x ptr] }, ptr @_ZTVN6icu_7513UnicodeStringE, i64 0, i32 0, i64 2), ptr %temp, align 8
  %fUnion2.i = getelementptr inbounds i8, ptr %temp, i64 8
  store i16 2, ptr %fUnion2.i, align 8
  %ruleSet = getelementptr inbounds i8, ptr %this, i64 16
  %3 = load ptr, ptr %ruleSet, align 8
  %cmp.not = icmp eq ptr %3, null
  br i1 %cmp.not, label %if.else, label %if.then

if.then:                                          ; preds = %entry
  %name.i = getelementptr inbounds i8, ptr %3, i64 8
  %call.i.i5 = invoke noundef nonnull align 8 dereferenceable(64) ptr @_ZN6icu_7513UnicodeString8copyFromERKS0_a(ptr noundef nonnull align 8 dereferenceable(64) %temp, ptr noundef nonnull align 8 dereferenceable(64) %name.i, i8 noundef signext 0)
          to label %if.end12 unwind label %lpad

lpad:                                             ; preds = %invoke.cont17, %if.end12, %if.then, %invoke.cont13, %if.then6
  %4 = landingpad { ptr, i32 }
          cleanup
  call void @_ZN6icu_7513UnicodeStringD1Ev(ptr noundef nonnull align 8 dereferenceable(64) %temp) #11
  resume { ptr, i32 } %4

if.else:                                          ; preds = %entry
  %numberFormat = getelementptr inbounds i8, ptr %this, i64 24
  %5 = load ptr, ptr %numberFormat, align 8
  %cmp5.not = icmp eq ptr %5, null
  br i1 %cmp5.not, label %if.end12, label %if.then6

if.then6:                                         ; preds = %if.else
  %vtable8 = load ptr, ptr %5, align 8
  %vfn9 = getelementptr inbounds i8, ptr %vtable8, i64 544
  %6 = load ptr, ptr %vfn9, align 8
  %call11 = invoke noundef nonnull align 8 dereferenceable(64) ptr %6(ptr noundef nonnull align 8 dereferenceable(368) %5, ptr noundef nonnull align 8 dereferenceable(64) %temp)
          to label %if.end12 unwind label %lpad

if.end12:                                         ; preds = %if.then, %if.else, %if.then6
  %7 = load i16, ptr %fUnion2.i, align 8
  %cmp.i.i.i = icmp slt i16 %7, 0
  %8 = ashr i16 %7, 5
  %shr.i.i.i = sext i16 %8 to i32
  %fLength.i.i = getelementptr inbounds i8, ptr %temp, i64 12
  %9 = load i32, ptr %fLength.i.i, align 4
  %cond.i.i = select i1 %cmp.i.i.i, i32 %9, i32 %shr.i.i.i
  %call2.i6 = invoke noundef nonnull align 8 dereferenceable(64) ptr @_ZN6icu_7513UnicodeString8doAppendERKS0_ii(ptr noundef nonnull align 8 dereferenceable(64) %text, ptr noundef nonnull align 8 dereferenceable(64) %temp, i32 noundef 0, i32 noundef %cond.i.i)
          to label %invoke.cont13 unwind label %lpad

invoke.cont13:                                    ; preds = %if.end12
  %vtable15 = load ptr, ptr %this, align 8
  %vfn16 = getelementptr inbounds i8, ptr %vtable15, i64 104
  %10 = load ptr, ptr %vfn16, align 8
  %call18 = invoke noundef zeroext i16 %10(ptr noundef nonnull align 8 dereferenceable(32) %this)
          to label %invoke.cont17 unwind label %lpad

invoke.cont17:                                    ; preds = %invoke.cont13
  call void @llvm.lifetime.start.p0(i64 2, ptr nonnull %srcChar.addr.i7)
  store i16 %call18, ptr %srcChar.addr.i7, align 2
  %call.i89 = invoke noundef nonnull align 8 dereferenceable(64) ptr @_ZN6icu_7513UnicodeString8doAppendEPKDsii(ptr noundef nonnull align 8 dereferenceable(64) %text, ptr noundef nonnull %srcChar.addr.i7, i32 noundef 0, i32 noundef 1)
          to label %invoke.cont19 unwind label %lpad

invoke.cont19:                                    ; preds = %invoke.cont17
  call void @llvm.lifetime.end.p0(i64 2, ptr nonnull %srcChar.addr.i7)
  call void @_ZN6icu_7513UnicodeStringD1Ev(ptr noundef nonnull align 8 dereferenceable(64) %temp) #11
  ret void
}